; Function Attrs: mustprogress uwtable
define dso_local noundef float @_ZNK16btCollisionShape20getAngularMotionDiscEv(ptr noundef nonnull align 8 dereferenceable(32) %0) unnamed_addr #3 align 2 {
  %2 = alloca %class.btVector3, align 4
  %3 = alloca float, align 4
  call void @llvm.lifetime.start.p0(i64 16, ptr nonnull %2) #10
  call void @llvm.lifetime.start.p0(i64 4, ptr nonnull %3) #10
  %4 = load ptr, ptr %0, align 8, !tbaa !8
  %5 = getelementptr inbounds nuw i8, ptr %4, i64 24
  %6 = load ptr, ptr %5, align 8
  call void %6(ptr noundef nonnull align 8 dereferenceable(32) %0, ptr noundef nonnull align 4 dereferenceable(16) %2, ptr noundef nonnull align 4 dereferenceable(4) %3)
  %7 = load float, ptr %2, align 4, !tbaa !4
  %8 = getelementptr inbounds nuw i8, ptr %2, i64 4
  %9 = load float, ptr %8, align 4, !tbaa !4
  %10 = fmul float %9, %9
  %11 = call float @llvm.fmuladd.f32(float %7, float %7, float %10)
  %12 = getelementptr inbounds nuw i8, ptr %2, i64 8
  %13 = load float, ptr %12, align 4, !tbaa !4
  %14 = call noundef float @llvm.fmuladd.f32(float %13, float %13, float %11)
  %sqrt.i = call noundef float @llvm.sqrt.f32(float %14)
  %15 = load float, ptr %3, align 4, !tbaa !4
  %16 = fadd float %15, %sqrt.i
  call void @llvm.lifetime.end.p0(i64 4, ptr nonnull %3) #10
  call void @llvm.lifetime.end.p0(i64 16, ptr nonnull %2) #10
  ret float %16
}